; Function Attrs: mustprogress nofree norecurse nosync nounwind ssp willreturn memory(read, argmem: readwrite, inaccessiblemem: none) uwtable
define void @_ZNK6open3d9pipelines9color_map17ImageWarpingField9QueryFlowEii(ptr dead_on_unwind noalias writable writeonly sret(%"class.Eigen::Matrix.4") align 16 captures(none) initializes((0, 16)) %0, ptr noundef nonnull readonly align 8 captures(none) dereferenceable(40) %1, i32 noundef %2, i32 noundef %3) local_unnamed_addr #9 align 2 personality ptr @__gxx_personality_v0 {
  %5 = getelementptr inbounds nuw i8, ptr %1, i64 24
  %6 = load i32, ptr %5, align 8, !tbaa !13
  %7 = mul nsw i32 %6, %3
  %8 = add nsw i32 %7, %2
  %9 = shl nsw i32 %8, 1
  %10 = icmp slt i32 %8, 0
  br i1 %10, label %15, label %11

11:                                               ; preds = %4
  %12 = getelementptr inbounds nuw i8, ptr %1, i64 28
  %13 = load i32, ptr %12, align 4, !tbaa !20
  %14 = mul nsw i32 %13, %6
  %.not = icmp slt i32 %8, %14
  br i1 %.not, label %16, label %15

15:                                               ; preds = %11, %4
  tail call void @llvm.memset.p0.i64(ptr noundef nonnull align 16 dereferenceable(16) %0, i8 0, i64 16, i1 false)
  br label %25

16:                                               ; preds = %11
  %17 = getelementptr inbounds nuw i8, ptr %1, i64 8
  %18 = zext nneg i32 %9 to i64
  %19 = load ptr, ptr %17, align 8, !tbaa !7
  %20 = getelementptr inbounds nuw double, ptr %19, i64 %18
  %21 = getelementptr inbounds nuw i8, ptr %20, i64 8
  %22 = load double, ptr %20, align 8, !tbaa !21
  store double %22, ptr %0, align 16, !tbaa !21
  %23 = load double, ptr %21, align 8, !tbaa !21
  %24 = getelementptr inbounds nuw i8, ptr %0, i64 8
  store double %23, ptr %24, align 8, !tbaa !21
  br label %25

25:                                               ; preds = %16, %15
  ret void
}